; ModuleID = '31/210.c'
source_filename = "31/210.c"
target datalayout = "e-m:e-p270:32:32-p271:32:32-p272:64:64-i64:64-f80:128-n8:16:32:64-S128"
target triple = "x86_64-pc-linux-gnu"

%struct.student = type { [1000 x i8], %struct.student*, %struct.student* }

@.str = private unnamed_addr constant [4 x i8] c"end\00", align 1

; Function Attrs: noinline nounwind uwtable
define dso_local void @main() #0 {
  %1 = alloca %struct.student*, align 8
  %2 = alloca %struct.student*, align 8
  %3 = alloca %struct.student*, align 8
  %4 = alloca %struct.student*, align 8
  %5 = alloca i32, align 4
  %6 = alloca i32, align 4
  %7 = alloca i32, align 4
  %8 = call noalias i8* @malloc(i64 100) #4
  %9 = bitcast i8* %8 to %struct.student*
  store %struct.student* %9, %struct.student** %1, align 8
  %10 = load %struct.student*, %struct.student** %1, align 8
  store %struct.student* %10, %struct.student** %2, align 8
  store %struct.student* null, %struct.student** %3, align 8
  %11 = load %struct.student*, %struct.student** %2, align 8
  %12 = getelementptr inbounds %struct.student, %struct.student* %11, i32 0, i32 1
  store %struct.student* null, %struct.student** %12, align 8
  %13 = load %struct.student*, %struct.student** %2, align 8
  %14 = getelementptr inbounds %struct.student, %struct.student* %13, i32 0, i32 2
  store %struct.student* null, %struct.student** %14, align 8
  br label %15

15:                                               ; preds = %44, %0
  %16 = load %struct.student*, %struct.student** %2, align 8
  %17 = getelementptr inbounds %struct.student, %struct.student* %16, i32 0, i32 0
  %18 = getelementptr inbounds [1000 x i8], [1000 x i8]* %17, i64 0, i64 0
  %19 = call i32 (i8*, ...) bitcast (i32 (...)* @gets to i32 (i8*, ...)*)(i8* %18)
  %20 = load %struct.student*, %struct.student** %2, align 8
  %21 = getelementptr inbounds %struct.student, %struct.student* %20, i32 0, i32 0
  %22 = getelementptr inbounds [1000 x i8], [1000 x i8]* %21, i64 0, i64 0
  %23 = call i32 @strcmp(i8* %22, i8* getelementptr inbounds ([4 x i8], [4 x i8]* @.str, i64 0, i64 0)) #5
  %24 = icmp eq i32 %23, 0
  br i1 %24, label %25, label %30

25:                                               ; preds = %15
  %26 = load %struct.student*, %struct.student** %3, align 8
  %27 = load %struct.student*, %struct.student** %2, align 8
  %28 = getelementptr inbounds %struct.student, %struct.student* %27, i32 0, i32 1
  store %struct.student* %26, %struct.student** %28, align 8
  %29 = load %struct.student*, %struct.student** %3, align 8
  store %struct.student* %29, %struct.student** %4, align 8
  br label %45

30:                                               ; preds = %15
  %31 = load %struct.student*, %struct.student** %3, align 8
  %32 = load %struct.student*, %struct.student** %2, align 8
  %33 = getelementptr inbounds %struct.student, %struct.student* %32, i32 0, i32 1
  store %struct.student* %31, %struct.student** %33, align 8
  %34 = call noalias i8* @malloc(i64 100) #4
  %35 = bitcast i8* %34 to %struct.student*
  %36 = load %struct.student*, %struct.student** %2, align 8
  %37 = getelementptr inbounds %struct.student, %struct.student* %36, i32 0, i32 2
  store %struct.student* %35, %struct.student** %37, align 8
  %38 = load %struct.student*, %struct.student** %2, align 8
  store %struct.student* %38, %struct.student** %3, align 8
  %39 = load %struct.student*, %struct.student** %2, align 8
  %40 = getelementptr inbounds %struct.student, %struct.student* %39, i32 0, i32 2
  %41 = load %struct.student*, %struct.student** %40, align 8
  store %struct.student* %41, %struct.student** %2, align 8
  %42 = load %struct.student*, %struct.student** %2, align 8
  %43 = getelementptr inbounds %struct.student, %struct.student* %42, i32 0, i32 2
  store %struct.student* null, %struct.student** %43, align 8
  br label %44

44:                                               ; preds = %30
  br label %15

45:                                               ; preds = %25
  %46 = load %struct.student*, %struct.student** %4, align 8
  store %struct.student* %46, %struct.student** %2, align 8
  br label %47

47:                                               ; preds = %50, %45
  %48 = load %struct.student*, %struct.student** %2, align 8
  %49 = icmp ne %struct.student* %48, null
  br i1 %49, label %50, label %58

50:                                               ; preds = %47
  %51 = load %struct.student*, %struct.student** %2, align 8
  %52 = getelementptr inbounds %struct.student, %struct.student* %51, i32 0, i32 0
  %53 = getelementptr inbounds [1000 x i8], [1000 x i8]* %52, i64 0, i64 0
  %54 = call i32 @puts(i8* %53)
  %55 = load %struct.student*, %struct.student** %2, align 8
  %56 = getelementptr inbounds %struct.student, %struct.student* %55, i32 0, i32 1
  %57 = load %struct.student*, %struct.student** %56, align 8
  store %struct.student* %57, %struct.student** %2, align 8
  br label %47

58:                                               ; preds = %47
  ret void
}

; Function Attrs: nounwind
declare dso_local noalias i8* @malloc(i64) #1

declare dso_local i32 @gets(...) #2

; Function Attrs: nounwind readonly
declare dso_local i32 @strcmp(i8*, i8*) #3

declare dso_local i32 @puts(i8*) #2


!llvm.module.flags = !{!0}
!llvm.ident = !{!1}

!0 = !{i32 1, !"wchar_size", i32 4}
!1 = !{!"clang version 10.0.0-4ubuntu1 "}
